target datalayout = "e-m:e-p270:32:32-p271:32:32-p272:64:64-i64:64-i128:128-f80:128-n8:16:32:64-S128"
target triple = "x86_64-pc-linux-gnu"

%struct.pmix_class_t = type { ptr, ptr, ptr, ptr, i32, i32, ptr, ptr, i64 }
%struct.pmix_tma = type { ptr, ptr, ptr, ptr, ptr, ptr, ptr, ptr }
%union.pthread_mutex_t = type { %struct.__pthread_mutex_s }
%struct.__pthread_mutex_s = type { i32, i32, i32, i32, i32, i16, i16, %struct.__pthread_internal_list }
%struct.__pthread_internal_list = type { ptr, ptr }
%union.pthread_cond_t = type { %struct.__pthread_cond_s }
%struct.__pthread_cond_s = type { %union.__atomic_wide_counter, %union.__atomic_wide_counter, [2 x i32], [2 x i32], i32, i32, [2 x i32] }
%union.__atomic_wide_counter = type { i64 }
%struct.pmix_object_t = type { %union.pthread_mutex_t, ptr, i32, %struct.pmix_tma }
%struct.timeval = type { i64, i64 }
%struct.pmix_list_t = type { %struct.pmix_object_t, %struct.pmix_list_item_t, i64 }
%struct.pmix_list_item_t = type { %struct.pmix_object_t, ptr, ptr, i32 }
%struct.event = type { %struct.event_callback, %union.anon.3, i32, ptr, %union.anon.5, i16, i16, %struct.timeval }
%struct.event_callback = type { %struct.anon.1, i16, i8, i8, %union.anon.2, ptr }
%struct.anon.1 = type { ptr, ptr }
%union.anon.2 = type { ptr }
%union.anon.3 = type { %struct.anon.4 }
%struct.anon.4 = type { ptr, ptr }
%union.anon.5 = type { %struct.anon.6 }
%struct.anon.6 = type { %struct.anon.7, %struct.timeval }
%struct.anon.7 = type { ptr, ptr }
%struct.pmix_lock_t = type { i32, %struct.pmix_mutex_t, %union.pthread_cond_t, i8 }
%struct.pmix_mutex_t = type { %struct.pmix_object_t, %union.pthread_mutex_t }
%struct.pmix_query_caddy_t = type { %struct.pmix_object_t, %struct.event, %struct.pmix_lock_t, i8, i32, ptr, i64, ptr, i64, ptr, ptr, i64, i64, %struct.pmix_list_t, i64, i64, %struct.pmix_byte_object, ptr, ptr, ptr, ptr, ptr, ptr }
%struct.pmix_byte_object = type { ptr, i64 }

@.str.25 = private unnamed_addr constant [21 x i8] c"pthread_mutex_lock()\00", align 1

; Function Attrs: inlinehint nounwind uwtable
define internal void @pmix_tma_free(ptr noundef %0, ptr noundef %1) #2 {
  %3 = alloca ptr, align 8
  %4 = alloca ptr, align 8
  store ptr %0, ptr %3, align 8, !tbaa !58
  store ptr %1, ptr %4, align 8, !tbaa !3
  %5 = load ptr, ptr %3, align 8, !tbaa !58
  %6 = icmp ne ptr null, %5
  br i1 %6, label %7, label %13

7:                                                ; preds = %2
  %8 = load ptr, ptr %3, align 8, !tbaa !58
  %9 = getelementptr inbounds nuw %struct.pmix_tma, ptr %8, i32 0, i32 5
  %10 = load ptr, ptr %9, align 8, !tbaa !254
  %11 = load ptr, ptr %3, align 8, !tbaa !58
  %12 = load ptr, ptr %4, align 8, !tbaa !3
  call void %10(ptr noundef %11, ptr noundef %12)
  br label %15

13:                                               ; preds = %2
  %14 = load ptr, ptr %4, align 8, !tbaa !3
  call void @free(ptr noundef %14) #13
  br label %15

15:                                               ; preds = %13, %7
  ret void
}

; Function Attrs: alwaysinline nounwind uwtable
define internal i32 @pmix_obj_update(ptr noundef %0, i32 noundef %1) #7 {
  %3 = alloca ptr, align 8
  %4 = alloca i32, align 4
  %5 = alloca i32, align 4
  store ptr %0, ptr %3, align 8, !tbaa !20
  store i32 %1, ptr %4, align 4, !tbaa !7
  call void @llvm.lifetime.start.p0(i64 4, ptr %5) #13
  %6 = load ptr, ptr %3, align 8, !tbaa !20
  %7 = getelementptr inbounds nuw %struct.pmix_object_t, ptr %6, i32 0, i32 0
  %8 = call i32 @pthread_mutex_lock(ptr noundef %7) #13
  store i32 %8, ptr %5, align 4, !tbaa !7
  %9 = load i32, ptr %5, align 4, !tbaa !7
  %10 = icmp eq i32 %9, 35
  br i1 %10, label %11, label %14

11:                                               ; preds = %2
  %12 = load i32, ptr %5, align 4, !tbaa !7
  %13 = call ptr @__errno_location() #15
  store i32 %12, ptr %13, align 4, !tbaa !7
  call void @perror(ptr noundef @.str.25)
  call void @abort() #16
  unreachable

14:                                               ; preds = %2
  %15 = load i32, ptr %4, align 4, !tbaa !7
  %16 = load ptr, ptr %3, align 8, !tbaa !20
  %17 = getelementptr inbounds nuw %struct.pmix_object_t, ptr %16, i32 0, i32 2
  %18 = load i32, ptr %17, align 8, !tbaa !17
  %19 = add nsw i32 %18, %15
  store i32 %19, ptr %17, align 8, !tbaa !17
  store i32 %19, ptr %5, align 4, !tbaa !7
  %20 = load ptr, ptr %3, align 8, !tbaa !20
  %21 = getelementptr inbounds nuw %struct.pmix_object_t, ptr %20, i32 0, i32 0
  %22 = call i32 @pthread_mutex_unlock(ptr noundef %21) #13
  %23 = load i32, ptr %5, align 4, !tbaa !7
  call void @llvm.lifetime.end.p0(i64 4, ptr %5) #13
  ret i32 %23
}

; Function Attrs: inlinehint nounwind uwtable
define internal ptr @pmix_list_remove_first(ptr noundef %0) #2 {
  %2 = alloca ptr, align 8
  %3 = alloca ptr, align 8
  %4 = alloca ptr, align 8
  %5 = alloca i32, align 4
  store ptr %0, ptr %3, align 8, !tbaa !279
  call void @llvm.lifetime.start.p0(i64 8, ptr %4) #13
  %6 = load ptr, ptr %3, align 8, !tbaa !279
  %7 = getelementptr inbounds nuw %struct.pmix_list_t, ptr %6, i32 0, i32 2
  %8 = load volatile i64, ptr %7, align 8, !tbaa !282
  %9 = icmp eq i64 0, %8
  br i1 %9, label %10, label %11

10:                                               ; preds = %1
  store ptr null, ptr %2, align 8
  store i32 1, ptr %5, align 4
  br label %34

11:                                               ; preds = %1
  %12 = load ptr, ptr %3, align 8, !tbaa !279
  %13 = getelementptr inbounds nuw %struct.pmix_list_t, ptr %12, i32 0, i32 2
  %14 = load volatile i64, ptr %13, align 8, !tbaa !282
  %15 = add i64 %14, -1
  store volatile i64 %15, ptr %13, align 8, !tbaa !282
  %16 = load ptr, ptr %3, align 8, !tbaa !279
  %17 = getelementptr inbounds nuw %struct.pmix_list_t, ptr %16, i32 0, i32 1
  %18 = getelementptr inbounds nuw %struct.pmix_list_item_t, ptr %17, i32 0, i32 1
  %19 = load ptr, ptr %18, align 8, !tbaa !305
  store ptr %19, ptr %4, align 8, !tbaa !18
  %20 = load ptr, ptr %4, align 8, !tbaa !18
  %21 = getelementptr inbounds nuw %struct.pmix_list_item_t, ptr %20, i32 0, i32 2
  %22 = load volatile ptr, ptr %21, align 8, !tbaa !281
  %23 = load ptr, ptr %4, align 8, !tbaa !18
  %24 = getelementptr inbounds nuw %struct.pmix_list_item_t, ptr %23, i32 0, i32 1
  %25 = load volatile ptr, ptr %24, align 8, !tbaa !262
  %26 = getelementptr inbounds nuw %struct.pmix_list_item_t, ptr %25, i32 0, i32 2
  store volatile ptr %22, ptr %26, align 8, !tbaa !281
  %27 = load ptr, ptr %4, align 8, !tbaa !18
  %28 = getelementptr inbounds nuw %struct.pmix_list_item_t, ptr %27, i32 0, i32 1
  %29 = load volatile ptr, ptr %28, align 8, !tbaa !262
  %30 = load ptr, ptr %3, align 8, !tbaa !279
  %31 = getelementptr inbounds nuw %struct.pmix_list_t, ptr %30, i32 0, i32 1
  %32 = getelementptr inbounds nuw %struct.pmix_list_item_t, ptr %31, i32 0, i32 1
  store ptr %29, ptr %32, align 8, !tbaa !305
  %33 = load ptr, ptr %4, align 8, !tbaa !18
  store ptr %33, ptr %2, align 8
  store i32 1, ptr %5, align 4
  br label %34

34:                                               ; preds = %11, %10
  call void @llvm.lifetime.end.p0(i64 8, ptr %4) #13
  %35 = load ptr, ptr %2, align 8
  ret ptr %35
}

; Function Attrs: inlinehint nounwind uwtable
define internal void @pmix_obj_run_destructors(ptr noundef %0) #2 {
  %2 = alloca ptr, align 8
  %3 = alloca ptr, align 8
  store ptr %0, ptr %2, align 8, !tbaa !20
  call void @llvm.lifetime.start.p0(i64 8, ptr %3) #13
  %4 = load ptr, ptr %2, align 8, !tbaa !20
  %5 = getelementptr inbounds nuw %struct.pmix_object_t, ptr %4, i32 0, i32 1
  %6 = load ptr, ptr %5, align 8, !tbaa !14
  %7 = getelementptr inbounds nuw %struct.pmix_class_t, ptr %6, i32 0, i32 7
  %8 = load ptr, ptr %7, align 8, !tbaa !283
  store ptr %8, ptr %3, align 8, !tbaa !3
  br label %9

9:                                                ; preds = %13, %1
  %10 = load ptr, ptr %3, align 8, !tbaa !3
  %11 = load ptr, ptr %10, align 8, !tbaa !3
  %12 = icmp ne ptr null, %11
  br i1 %12, label %13, label %19

13:                                               ; preds = %9
  %14 = load ptr, ptr %3, align 8, !tbaa !3
  %15 = load ptr, ptr %14, align 8, !tbaa !3
  %16 = load ptr, ptr %2, align 8, !tbaa !20
  call void %15(ptr noundef %16)
  %17 = load ptr, ptr %3, align 8, !tbaa !3
  %18 = getelementptr inbounds nuw ptr, ptr %17, i32 1
  store ptr %18, ptr %3, align 8, !tbaa !3
  br label %9, !llvm.loop !284

19:                                               ; preds = %9
  call void @llvm.lifetime.end.p0(i64 8, ptr %3) #13
  ret void
}

; Function Attrs: nounwind uwtable
define internal void @qdes(ptr noundef %0) #0 {
  %2 = alloca ptr, align 8
  %3 = alloca ptr, align 8
  %4 = alloca ptr, align 8
  store ptr %0, ptr %2, align 8, !tbaa !3
  br label %5

5:                                                ; preds = %1
  br label %6

6:                                                ; preds = %5
  %7 = load ptr, ptr %2, align 8, !tbaa !3
  %8 = getelementptr inbounds nuw %struct.pmix_query_caddy_t, ptr %7, i32 0, i32 2
  %9 = getelementptr inbounds nuw %struct.pmix_lock_t, ptr %8, i32 0, i32 1
  call void @pmix_obj_run_destructors(ptr noundef %9)
  br label %10

10:                                               ; preds = %6
  %11 = load ptr, ptr %2, align 8, !tbaa !3
  %12 = getelementptr inbounds nuw %struct.pmix_query_caddy_t, ptr %11, i32 0, i32 2
  %13 = getelementptr inbounds nuw %struct.pmix_lock_t, ptr %12, i32 0, i32 2
  %14 = call i32 @pthread_cond_destroy(ptr noundef %13) #13
  br label %15

15:                                               ; preds = %10
  %16 = load ptr, ptr %2, align 8, !tbaa !3
  %17 = getelementptr inbounds nuw %struct.pmix_query_caddy_t, ptr %16, i32 0, i32 16
  call void @PMIx_Byte_object_destruct(ptr noundef %17)
  br label %18

18:                                               ; preds = %15
  %19 = load ptr, ptr %2, align 8, !tbaa !3
  %20 = getelementptr inbounds nuw %struct.pmix_query_caddy_t, ptr %19, i32 0, i32 7
  %21 = load ptr, ptr %20, align 8, !tbaa !213
  %22 = load ptr, ptr %2, align 8, !tbaa !3
  %23 = getelementptr inbounds nuw %struct.pmix_query_caddy_t, ptr %22, i32 0, i32 8
  %24 = load i64, ptr %23, align 8, !tbaa !214
  call void @PMIx_Proc_free(ptr noundef %21, i64 noundef %24)
  %25 = load ptr, ptr %2, align 8, !tbaa !3
  %26 = getelementptr inbounds nuw %struct.pmix_query_caddy_t, ptr %25, i32 0, i32 7
  store ptr null, ptr %26, align 8, !tbaa !213
  br label %27

27:                                               ; preds = %18
  br label %28

28:                                               ; preds = %27
  %29 = load ptr, ptr %2, align 8, !tbaa !3
  %30 = getelementptr inbounds nuw %struct.pmix_query_caddy_t, ptr %29, i32 0, i32 9
  %31 = load ptr, ptr %30, align 8, !tbaa !215
  %32 = load ptr, ptr %2, align 8, !tbaa !3
  %33 = getelementptr inbounds nuw %struct.pmix_query_caddy_t, ptr %32, i32 0, i32 11
  %34 = load i64, ptr %33, align 8, !tbaa !216
  call void @PMIx_Info_free(ptr noundef %31, i64 noundef %34)
  %35 = load ptr, ptr %2, align 8, !tbaa !3
  %36 = getelementptr inbounds nuw %struct.pmix_query_caddy_t, ptr %35, i32 0, i32 9
  store ptr null, ptr %36, align 8, !tbaa !215
  br label %37

37:                                               ; preds = %28
  br label %38

38:                                               ; preds = %37
  call void @llvm.lifetime.start.p0(i64 8, ptr %3) #13
  br label %39

39:                                               ; preds = %66, %38
  %40 = load ptr, ptr %2, align 8, !tbaa !3
  %41 = getelementptr inbounds nuw %struct.pmix_query_caddy_t, ptr %40, i32 0, i32 13
  %42 = call ptr @pmix_list_remove_first(ptr noundef %41)
  store ptr %42, ptr %3, align 8, !tbaa !18
  %43 = icmp ne ptr null, %42
  br i1 %43, label %44, label %67

44:                                               ; preds = %39
  br label %45

45:                                               ; preds = %44
  call void @llvm.lifetime.start.p0(i64 8, ptr %4) #13
  %46 = load ptr, ptr %3, align 8, !tbaa !18
  store ptr %46, ptr %4, align 8, !tbaa !20
  %47 = load ptr, ptr %4, align 8, !tbaa !20
  %48 = call i32 @pmix_obj_update(ptr noundef %47, i32 noundef -1)
  %49 = icmp eq i32 0, %48
  br i1 %49, label %50, label %64

50:                                               ; preds = %45
  %51 = load ptr, ptr %4, align 8, !tbaa !20
  call void @pmix_obj_run_destructors(ptr noundef %51)
  %52 = load ptr, ptr %4, align 8, !tbaa !20
  %53 = getelementptr inbounds nuw %struct.pmix_object_t, ptr %52, i32 0, i32 3
  %54 = getelementptr inbounds nuw %struct.pmix_tma, ptr %53, i32 0, i32 5
  %55 = load ptr, ptr %54, align 8, !tbaa !22
  %56 = icmp ne ptr null, %55
  br i1 %56, label %57, label %61

57:                                               ; preds = %50
  %58 = load ptr, ptr %4, align 8, !tbaa !20
  %59 = getelementptr inbounds nuw %struct.pmix_object_t, ptr %58, i32 0, i32 3
  %60 = load ptr, ptr %3, align 8, !tbaa !18
  call void @pmix_tma_free(ptr noundef %59, ptr noundef %60)
  br label %63

61:                                               ; preds = %50
  %62 = load ptr, ptr %3, align 8, !tbaa !18
  call void @free(ptr noundef %62) #13
  br label %63

63:                                               ; preds = %61, %57
  store ptr null, ptr %3, align 8, !tbaa !18
  br label %64

64:                                               ; preds = %63, %45
  call void @llvm.lifetime.end.p0(i64 8, ptr %4) #13
  br label %65

65:                                               ; preds = %64
  br label %66

66:                                               ; preds = %65
  br label %39, !llvm.loop !225

67:                                               ; preds = %39
  br label %68

68:                                               ; preds = %67
  %69 = load ptr, ptr %2, align 8, !tbaa !3
  %70 = getelementptr inbounds nuw %struct.pmix_query_caddy_t, ptr %69, i32 0, i32 13
  call void @pmix_obj_run_destructors(ptr noundef %70)
  br label %71

71:                                               ; preds = %68
  br label %72

72:                                               ; preds = %71
  call void @llvm.lifetime.end.p0(i64 8, ptr %3) #13
  br label %73

73:                                               ; preds = %72
  ret void
}