; Function Attrs: nounwind uwtable
define internal void @qdes(ptr noundef %0) #0 {
  %2 = getelementptr inbounds nuw i8, ptr %0, i64 256
  %3 = getelementptr inbounds nuw i8, ptr %0, i64 296
  %4 = load ptr, ptr %3, align 8, !tbaa !13
  %5 = getelementptr inbounds nuw i8, ptr %4, i64 48
  %6 = load ptr, ptr %5, align 8, !tbaa !28
  %7 = load ptr, ptr %6, align 8, !tbaa !18
  %.not6.i = icmp eq ptr %7, null
  br i1 %.not6.i, label %pmix_obj_run_destructors.exit, label %.lr.ph.i

.lr.ph.i:                                         ; preds = %1, %.lr.ph.i
  %8 = phi ptr [ %10, %.lr.ph.i ], [ %7, %1 ]
  %.07.i = phi ptr [ %9, %.lr.ph.i ], [ %6, %1 ]
  tail call void %8(ptr noundef nonnull %2) #15
  %9 = getelementptr inbounds nuw i8, ptr %.07.i, i64 8
  %10 = load ptr, ptr %9, align 8, !tbaa !18
  %.not.i = icmp eq ptr %10, null
  br i1 %.not.i, label %pmix_obj_run_destructors.exit, label %.lr.ph.i, !llvm.loop !29

pmix_obj_run_destructors.exit:                    ; preds = %.lr.ph.i, %1
  %11 = getelementptr inbounds nuw i8, ptr %0, i64 416
  %12 = tail call i32 @pthread_cond_destroy(ptr noundef nonnull %11) #15
  %13 = getelementptr inbounds nuw i8, ptr %0, i64 832
  tail call void @PMIx_Byte_object_destruct(ptr noundef nonnull %13) #15
  %14 = getelementptr inbounds nuw i8, ptr %0, i64 496
  %15 = load ptr, ptr %14, align 8, !tbaa !177
  %16 = getelementptr inbounds nuw i8, ptr %0, i64 504
  %17 = load i64, ptr %16, align 8, !tbaa !178
  tail call void @PMIx_Proc_free(ptr noundef %15, i64 noundef %17) #15
  store ptr null, ptr %14, align 8, !tbaa !177
  %18 = getelementptr inbounds nuw i8, ptr %0, i64 512
  %19 = load ptr, ptr %18, align 8, !tbaa !179
  %20 = getelementptr inbounds nuw i8, ptr %0, i64 528
  %21 = load i64, ptr %20, align 8, !tbaa !176
  tail call void @PMIx_Info_free(ptr noundef %19, i64 noundef %21) #15
  store ptr null, ptr %18, align 8, !tbaa !179
  %22 = getelementptr inbounds nuw i8, ptr %0, i64 808
  %23 = load volatile i64, ptr %22, align 8, !tbaa !21
  %24 = icmp eq i64 %23, 0
  br i1 %24, label %._crit_edge, label %.lr.ph

.lr.ph:                                           ; preds = %pmix_obj_run_destructors.exit
  %25 = getelementptr inbounds nuw i8, ptr %0, i64 784
  br label %26

26:                                               ; preds = %.lr.ph, %59
  %27 = load volatile i64, ptr %22, align 8, !tbaa !21
  %28 = add i64 %27, -1
  store volatile i64 %28, ptr %22, align 8, !tbaa !21
  %29 = load ptr, ptr %25, align 8, !tbaa !25
  %30 = getelementptr inbounds nuw i8, ptr %29, i64 128
  %31 = load volatile ptr, ptr %30, align 8, !tbaa !26
  %32 = getelementptr inbounds nuw i8, ptr %29, i64 120
  %33 = load volatile ptr, ptr %32, align 8, !tbaa !27
  %34 = getelementptr inbounds nuw i8, ptr %33, i64 128
  store volatile ptr %31, ptr %34, align 8, !tbaa !26
  %35 = load volatile ptr, ptr %32, align 8, !tbaa !27
  store ptr %35, ptr %25, align 8, !tbaa !25
  %36 = tail call i32 @pthread_mutex_lock(ptr noundef nonnull %29) #15
  %37 = icmp eq i32 %36, 35
  br i1 %37, label %38, label %pmix_obj_update.exit

38:                                               ; preds = %26
  %39 = tail call ptr @__errno_location() #16
  store i32 35, ptr %39, align 4, !tbaa !3
  tail call void @perror(ptr noundef nonnull @.str.25) #17
  tail call void @abort() #18
  unreachable

pmix_obj_update.exit:                             ; preds = %26
  %40 = getelementptr inbounds nuw i8, ptr %29, i64 48
  %41 = load i32, ptr %40, align 8, !tbaa !16
  %42 = add nsw i32 %41, -1
  store i32 %42, ptr %40, align 8, !tbaa !16
  %43 = tail call i32 @pthread_mutex_unlock(ptr noundef nonnull %29) #15
  %44 = icmp eq i32 %42, 0
  br i1 %44, label %45, label %59

45:                                               ; preds = %pmix_obj_update.exit
  %46 = getelementptr inbounds nuw i8, ptr %29, i64 40
  %47 = load ptr, ptr %46, align 8, !tbaa !13
  %48 = getelementptr inbounds nuw i8, ptr %47, i64 48
  %49 = load ptr, ptr %48, align 8, !tbaa !28
  %50 = load ptr, ptr %49, align 8, !tbaa !18
  %.not6.i19 = icmp eq ptr %50, null
  br i1 %.not6.i19, label %pmix_obj_run_destructors.exit23, label %.lr.ph.i20

.lr.ph.i20:                                       ; preds = %45, %.lr.ph.i20
  %51 = phi ptr [ %53, %.lr.ph.i20 ], [ %50, %45 ]
  %.07.i21 = phi ptr [ %52, %.lr.ph.i20 ], [ %49, %45 ]
  tail call void %51(ptr noundef nonnull %29) #15
  %52 = getelementptr inbounds nuw i8, ptr %.07.i21, i64 8
  %53 = load ptr, ptr %52, align 8, !tbaa !18
  %.not.i22 = icmp eq ptr %53, null
  br i1 %.not.i22, label %pmix_obj_run_destructors.exit23, label %.lr.ph.i20, !llvm.loop !29

pmix_obj_run_destructors.exit23:                  ; preds = %.lr.ph.i20, %45
  %54 = getelementptr inbounds nuw i8, ptr %29, i64 96
  %55 = load ptr, ptr %54, align 8, !tbaa !30
  %.not18 = icmp eq ptr %55, null
  br i1 %.not18, label %58, label %56

56:                                               ; preds = %pmix_obj_run_destructors.exit23
  %57 = getelementptr inbounds nuw i8, ptr %29, i64 56
  tail call void %55(ptr noundef nonnull %57, ptr noundef nonnull %29) #15
  br label %59

58:                                               ; preds = %pmix_obj_run_destructors.exit23
  tail call void @free(ptr noundef nonnull %29) #15
  br label %59

59:                                               ; preds = %56, %58, %pmix_obj_update.exit
  %60 = load volatile i64, ptr %22, align 8, !tbaa !21
  %61 = icmp eq i64 %60, 0
  br i1 %61, label %._crit_edge, label %26, !llvm.loop !180

._crit_edge:                                      ; preds = %59, %pmix_obj_run_destructors.exit
  %62 = getelementptr inbounds nuw i8, ptr %0, i64 544
  %63 = getelementptr inbounds nuw i8, ptr %0, i64 584
  %64 = load ptr, ptr %63, align 8, !tbaa !13
  %65 = getelementptr inbounds nuw i8, ptr %64, i64 48
  %66 = load ptr, ptr %65, align 8, !tbaa !28
  %67 = load ptr, ptr %66, align 8, !tbaa !18
  %.not6.i25 = icmp eq ptr %67, null
  br i1 %.not6.i25, label %pmix_obj_run_destructors.exit29, label %.lr.ph.i26

.lr.ph.i26:                                       ; preds = %._crit_edge, %.lr.ph.i26
  %68 = phi ptr [ %70, %.lr.ph.i26 ], [ %67, %._crit_edge ]
  %.07.i27 = phi ptr [ %69, %.lr.ph.i26 ], [ %66, %._crit_edge ]
  tail call void %68(ptr noundef nonnull %62) #15
  %69 = getelementptr inbounds nuw i8, ptr %.07.i27, i64 8
  %70 = load ptr, ptr %69, align 8, !tbaa !18
  %.not.i28 = icmp eq ptr %70, null
  br i1 %.not.i28, label %pmix_obj_run_destructors.exit29, label %.lr.ph.i26, !llvm.loop !29

pmix_obj_run_destructors.exit29:                  ; preds = %.lr.ph.i26, %._crit_edge
  ret void
}